; Function Attrs: nounwind uwtable
define noalias ptr @l_Array_forIn_x27Unsafe_loop___at_Lean_Compiler_LCNF_Closure_run___spec__1(ptr readnone captures(none) %0, ptr readnone captures(none) %1, ptr noundef readonly captures(none) %2, i64 noundef %3, i64 noundef %4, ptr noundef %5, ptr readnone captures(none) %6, ptr readnone captures(none) %7, ptr readnone captures(none) %8, ptr readnone captures(none) %9, ptr noundef %10) local_unnamed_addr #1 {
  %.not37 = icmp ult i64 %4, %3
  br i1 %.not37, label %.lr.ph, label %._crit_edge

.lr.ph:                                           ; preds = %11
  %12 = getelementptr inbounds nuw i8, ptr %2, i64 24
  br label %16

._crit_edge:                                      ; preds = %44, %11
  %.023.lcssa = phi ptr [ %5, %11 ], [ %45, %44 ]
  tail call void @lean_inc_heartbeat() #4
  %13 = tail call noalias ptr @mi_malloc_small(i64 noundef 24) #4
  %14 = icmp eq ptr %13, null
  br i1 %14, label %15, label %47

15:                                               ; preds = %._crit_edge
  tail call void @lean_internal_panic_out_of_memory() #5
  unreachable

16:                                               ; preds = %.lr.ph, %44
  %.02139 = phi i64 [ %4, %.lr.ph ], [ %46, %44 ]
  %.02338 = phi ptr [ %5, %.lr.ph ], [ %45, %44 ]
  %17 = getelementptr inbounds nuw [0 x ptr], ptr %12, i64 0, i64 %.02139
  %18 = load ptr, ptr %17, align 8, !tbaa !9
  %19 = ptrtoint ptr %18 to i64
  %20 = and i64 %19, 1
  %.not.i26 = icmp eq i64 %20, 0
  br i1 %.not.i26, label %21, label %lean_array_uget.exit

21:                                               ; preds = %16
  %.val.i.i = load i32, ptr %18, align 4, !tbaa !4
  %22 = icmp sgt i32 %.val.i.i, 0
  br i1 %22, label %23, label %25, !prof !11

23:                                               ; preds = %21
  %24 = add nuw i32 %.val.i.i, 1
  store i32 %24, ptr %18, align 4, !tbaa !4
  br label %lean_array_uget.exit

25:                                               ; preds = %21
  %.not.i.i = icmp eq i32 %.val.i.i, 0
  br i1 %.not.i.i, label %lean_array_uget.exit, label %26

26:                                               ; preds = %25
  tail call void @lean_inc_ref_cold(ptr noundef nonnull %18) #4
  br label %lean_array_uget.exit

lean_array_uget.exit:                             ; preds = %16, %23, %25, %26
  %27 = getelementptr inbounds nuw i8, ptr %18, i64 8
  %28 = load ptr, ptr %27, align 8, !tbaa !9
  %29 = ptrtoint ptr %28 to i64
  %30 = and i64 %29, 1
  %.not35 = icmp eq i64 %30, 0
  br i1 %.not35, label %31, label %lean_inc.exit

31:                                               ; preds = %lean_array_uget.exit
  %.val.i = load i32, ptr %28, align 4, !tbaa !4
  %32 = icmp sgt i32 %.val.i, 0
  br i1 %32, label %33, label %35, !prof !11

33:                                               ; preds = %31
  %34 = add nuw i32 %.val.i, 1
  store i32 %34, ptr %28, align 4, !tbaa !4
  br label %lean_inc.exit

35:                                               ; preds = %31
  %.not.i27 = icmp eq i32 %.val.i, 0
  br i1 %.not.i27, label %lean_inc.exit, label %36

36:                                               ; preds = %35
  tail call void @lean_inc_ref_cold(ptr noundef nonnull %28) #4
  br label %lean_inc.exit

lean_inc.exit:                                    ; preds = %36, %35, %33, %lean_array_uget.exit
  br i1 %.not.i26, label %37, label %44

37:                                               ; preds = %lean_inc.exit
  %38 = load i32, ptr %18, align 4, !tbaa !4
  %39 = icmp sgt i32 %38, 1
  br i1 %39, label %40, label %42, !prof !11

40:                                               ; preds = %37
  %41 = add nsw i32 %38, -1
  store i32 %41, ptr %18, align 4, !tbaa !4
  br label %44

42:                                               ; preds = %37
  %.not.i = icmp eq i32 %38, 0
  br i1 %.not.i, label %44, label %43

43:                                               ; preds = %42
  tail call void @lean_dec_ref_cold(ptr noundef nonnull %18) #4
  br label %44

44:                                               ; preds = %lean_inc.exit, %40, %42, %43
  %45 = tail call ptr @l_Lean_RBNode_insert___at_Lean_FVarIdSet_insert___spec__1(ptr noundef %.02338, ptr noundef %28, ptr noundef nonnull inttoptr (i64 1 to ptr)) #4
  %46 = add nuw i64 %.02139, 1
  %exitcond.not = icmp eq i64 %46, %3
  br i1 %exitcond.not, label %._crit_edge, label %16

47:                                               ; preds = %._crit_edge
  %48 = getelementptr inbounds nuw i8, ptr %13, i64 4
  store i32 1, ptr %13, align 4, !tbaa !4
  store i32 131096, ptr %48, align 4
  %49 = getelementptr inbounds nuw i8, ptr %13, i64 8
  store ptr %.023.lcssa, ptr %49, align 8, !tbaa !9
  %50 = getelementptr inbounds nuw i8, ptr %13, i64 16
  store ptr %10, ptr %50, align 8, !tbaa !9
  ret ptr %13
}